(dp0
S'all_imaging_depths'
p1
(lp2
I175
aI250
aI275
aI335
aI350
aI375
asS'all_genotype'
p3
(lp4
VCux2-CreERT2
p5
aVEmx1-IRES-Cre
p6
aVNr5a1-Cre
p7
aVRbp4-Cre_KL100
p8
aVRorb-IRES2-Cre
p9
aVScnn1a-Tg3-Cre
p10
asS'all_targets'
p11
(lp12
VVISal
p13
aVVISl
p14
aVVISp
p15
aVVISpm
p16
asS'session_type'
p17
cnumpy.core.multiarray
scalar
p18
(cnumpy
dtype
p19
(S'S15'
p20
I0
I1
tp21
Rp22
(I3
S'|'
p23
NNNI15
I1
I0
tp24
bS'three_session_B'
p25
tp26
Rp27
sS'all_natual_movie'
p28
(lp29
S'natural_movie_one'
p30
aS'natural_movie_three'
p31
aS'natural_movie_two'
p32
asS'stimuli'
p33
(lp34
Vnatural_movie_one
p35
aVnatural_scenes
p36
aVspontaneous
p37
aVstatic_gratings
p38
asS'all_stimuli'
p39
(lp40
S'drifting_gratings'
p41
aS'locally_sparse_noise'
p42
ag30
ag31
ag32
aS'natural_scenes'
p43
aS'spontaneous'
p44
aS'static_gratings'
p45
asS'metadata'
p46
(dp47
S'imaging_depth_um'
p48
I175
sS'fov'
p49
V400x400 microns (512 x 512 pixels)
p50
sS'genotype'
p51
VCux2-CreERT2; Camk2a-tTA; Ai93(TITL-GCaMP6f)
p52
sS'ophys_experiment_id'
p53
I500964514
sg17
Vthree_session_B
p54
sS'specimen_name'
p55
VCux2-CreERT2;Camk2a-tTA;Ai93-222420
p56
sS'pipeline_version'
p57
V1.0
p58
sS'excitation_lambda'
p59
V910 microns
p60
sS'indicator'
p61
VGCaMP6f
p62
sS'sex'
p63
Vmale
p64
sS'device'
p65
VNikon A1R-MP multiphoton microscope
p66
sS'experiment_container_id'
p67
I511509529
sS'targeted_structure'
p68
VVISp
p69
sS'device_name'
p70
VCAM2P.1
p71
sS'age_days'
p72
I97
sS'session_start_time'
p73
cdatetime
datetime
p74
(S'\x07\xe0\x01\x1c\x106:\x00\x00\x00'
p75
tp76
Rp77
ss.